target datalayout = "e-m:e-p270:32:32-p271:32:32-p272:64:64-i64:64-i128:128-f80:128-n8:16:32:64-S128"
target triple = "x86_64-pc-linux-gnu"

%struct.KDF_HKDF = type { ptr, i32, %struct.PROV_DIGEST, ptr, i64, ptr, i64, ptr, i64, ptr, i64, ptr, i64, ptr, i64 }
%struct.PROV_DIGEST = type { ptr, ptr, ptr }
%struct.ossl_param_st = type { ptr, i32, ptr, i64, i64 }

@.str = private unnamed_addr constant [49 x i8] c"../openssl/providers/implementations/kdfs/hkdf.c\00", align 1
@.str.2 = private unnamed_addr constant [5 x i8] c"mode\00", align 1
@.str.4 = private unnamed_addr constant [7 x i8] c"digest\00", align 1
@.str.5 = private unnamed_addr constant [4 x i8] c"key\00", align 1
@.str.6 = private unnamed_addr constant [5 x i8] c"salt\00", align 1
@__func__.hkdf_common_set_ctx_params = private unnamed_addr constant [27 x i8] c"hkdf_common_set_ctx_params\00", align 1
@.str.8 = private unnamed_addr constant [19 x i8] c"EXTRACT_AND_EXPAND\00", align 1
@.str.9 = private unnamed_addr constant [13 x i8] c"EXTRACT_ONLY\00", align 1
@.str.10 = private unnamed_addr constant [12 x i8] c"EXPAND_ONLY\00", align 1

; Function Attrs: inlinehint nounwind uwtable
define internal i32 @ossl_param_is_empty(ptr noundef %0) #5 {
  %2 = alloca ptr, align 8
  store ptr %0, ptr %2, align 8, !tbaa !30
  %3 = load ptr, ptr %2, align 8, !tbaa !30
  %4 = icmp eq ptr %3, null
  br i1 %4, label %10, label %5

5:                                                ; preds = %1
  %6 = load ptr, ptr %2, align 8, !tbaa !30
  %7 = getelementptr inbounds nuw %struct.ossl_param_st, ptr %6, i32 0, i32 0
  %8 = load ptr, ptr %7, align 8, !tbaa !41
  %9 = icmp eq ptr %8, null
  br label %10

10:                                               ; preds = %5, %1
  %11 = phi i1 [ true, %1 ], [ %9, %5 ]
  %12 = zext i1 %11 to i32
  ret i32 %12
}

; Function Attrs: nounwind uwtable
define internal i32 @hkdf_common_set_ctx_params(ptr noundef %0, ptr noundef %1) #0 {
  %3 = alloca i32, align 4
  %4 = alloca ptr, align 8
  %5 = alloca ptr, align 8
  %6 = alloca ptr, align 8
  %7 = alloca ptr, align 8
  %8 = alloca i32, align 4
  %9 = alloca i32, align 4
  %10 = alloca ptr, align 8
  store ptr %0, ptr %4, align 8, !tbaa !3
  store ptr %1, ptr %5, align 8, !tbaa !30
  call void @llvm.lifetime.start.p0(i64 8, ptr %6) #6
  %11 = load ptr, ptr %4, align 8, !tbaa !3
  %12 = getelementptr inbounds nuw %struct.KDF_HKDF, ptr %11, i32 0, i32 0
  %13 = load ptr, ptr %12, align 8, !tbaa !7
  %14 = call ptr @ossl_prov_ctx_get0_libctx(ptr noundef %13)
  store ptr %14, ptr %6, align 8, !tbaa !32
  call void @llvm.lifetime.start.p0(i64 8, ptr %7) #6
  call void @llvm.lifetime.start.p0(i64 4, ptr %8) #6
  %15 = load ptr, ptr %5, align 8, !tbaa !30
  %16 = call i32 @ossl_param_is_empty(ptr noundef %15)
  %17 = icmp ne i32 %16, 0
  br i1 %17, label %18, label %19

18:                                               ; preds = %2
  store i32 1, ptr %3, align 4
  store i32 1, ptr %9, align 4
  br label %157

19:                                               ; preds = %2
  %20 = load ptr, ptr %5, align 8, !tbaa !30
  %21 = call ptr @OSSL_PARAM_locate_const(ptr noundef %20, ptr noundef @.str.4)
  %22 = icmp ne ptr %21, null
  br i1 %22, label %23, label %43

23:                                               ; preds = %19
  call void @llvm.lifetime.start.p0(i64 8, ptr %10) #6
  store ptr null, ptr %10, align 8, !tbaa !34
  %24 = load ptr, ptr %4, align 8, !tbaa !3
  %25 = getelementptr inbounds nuw %struct.KDF_HKDF, ptr %24, i32 0, i32 2
  %26 = load ptr, ptr %5, align 8, !tbaa !30
  %27 = load ptr, ptr %6, align 8, !tbaa !32
  %28 = call i32 @ossl_prov_digest_load_from_params(ptr noundef %25, ptr noundef %26, ptr noundef %27)
  %29 = icmp ne i32 %28, 0
  br i1 %29, label %31, label %30

30:                                               ; preds = %23
  store i32 0, ptr %3, align 4
  store i32 1, ptr %9, align 4
  br label %40

31:                                               ; preds = %23
  %32 = load ptr, ptr %4, align 8, !tbaa !3
  %33 = getelementptr inbounds nuw %struct.KDF_HKDF, ptr %32, i32 0, i32 2
  %34 = call ptr @ossl_prov_digest_md(ptr noundef %33)
  store ptr %34, ptr %10, align 8, !tbaa !34
  %35 = load ptr, ptr %10, align 8, !tbaa !34
  %36 = call i32 @EVP_MD_xof(ptr noundef %35)
  %37 = icmp ne i32 %36, 0
  br i1 %37, label %38, label %39

38:                                               ; preds = %31
  call void @ERR_new()
  call void @ERR_set_debug(ptr noundef @.str, i32 noundef 270, ptr noundef @__func__.hkdf_common_set_ctx_params)
  call void (i32, i32, ptr, ...) @ERR_set_error(i32 noundef 57, i32 noundef 183, ptr noundef null)
  store i32 0, ptr %3, align 4
  store i32 1, ptr %9, align 4
  br label %40

39:                                               ; preds = %31
  store i32 0, ptr %9, align 4
  br label %40

40:                                               ; preds = %39, %38, %30
  call void @llvm.lifetime.end.p0(i64 8, ptr %10) #6
  %41 = load i32, ptr %9, align 4
  switch i32 %41, label %157 [
    i32 0, label %42
  ]

42:                                               ; preds = %40
  br label %43

43:                                               ; preds = %42, %19
  %44 = load ptr, ptr %5, align 8, !tbaa !30
  %45 = call ptr @OSSL_PARAM_locate_const(ptr noundef %44, ptr noundef @.str.2)
  store ptr %45, ptr %7, align 8, !tbaa !30
  %46 = icmp ne ptr %45, null
  br i1 %46, label %47, label %104

47:                                               ; preds = %43
  %48 = load ptr, ptr %7, align 8, !tbaa !30
  %49 = getelementptr inbounds nuw %struct.ossl_param_st, ptr %48, i32 0, i32 1
  %50 = load i32, ptr %49, align 8, !tbaa !43
  %51 = icmp eq i32 %50, 4
  br i1 %51, label %52, label %83

52:                                               ; preds = %47
  %53 = load ptr, ptr %7, align 8, !tbaa !30
  %54 = getelementptr inbounds nuw %struct.ossl_param_st, ptr %53, i32 0, i32 2
  %55 = load ptr, ptr %54, align 8, !tbaa !44
  %56 = call i32 @OPENSSL_strcasecmp(ptr noundef %55, ptr noundef @.str.8)
  %57 = icmp eq i32 %56, 0
  br i1 %57, label %58, label %61

58:                                               ; preds = %52
  %59 = load ptr, ptr %4, align 8, !tbaa !3
  %60 = getelementptr inbounds nuw %struct.KDF_HKDF, ptr %59, i32 0, i32 1
  store i32 0, ptr %60, align 8, !tbaa !27
  br label %82

61:                                               ; preds = %52
  %62 = load ptr, ptr %7, align 8, !tbaa !30
  %63 = getelementptr inbounds nuw %struct.ossl_param_st, ptr %62, i32 0, i32 2
  %64 = load ptr, ptr %63, align 8, !tbaa !44
  %65 = call i32 @OPENSSL_strcasecmp(ptr noundef %64, ptr noundef @.str.9)
  %66 = icmp eq i32 %65, 0
  br i1 %66, label %67, label %70

67:                                               ; preds = %61
  %68 = load ptr, ptr %4, align 8, !tbaa !3
  %69 = getelementptr inbounds nuw %struct.KDF_HKDF, ptr %68, i32 0, i32 1
  store i32 1, ptr %69, align 8, !tbaa !27
  br label %81

70:                                               ; preds = %61
  %71 = load ptr, ptr %7, align 8, !tbaa !30
  %72 = getelementptr inbounds nuw %struct.ossl_param_st, ptr %71, i32 0, i32 2
  %73 = load ptr, ptr %72, align 8, !tbaa !44
  %74 = call i32 @OPENSSL_strcasecmp(ptr noundef %73, ptr noundef @.str.10)
  %75 = icmp eq i32 %74, 0
  br i1 %75, label %76, label %79

76:                                               ; preds = %70
  %77 = load ptr, ptr %4, align 8, !tbaa !3
  %78 = getelementptr inbounds nuw %struct.KDF_HKDF, ptr %77, i32 0, i32 1
  store i32 2, ptr %78, align 8, !tbaa !27
  br label %80

79:                                               ; preds = %70
  call void @ERR_new()
  call void @ERR_set_debug(ptr noundef @.str, i32 noundef 284, ptr noundef @__func__.hkdf_common_set_ctx_params)
  call void (i32, i32, ptr, ...) @ERR_set_error(i32 noundef 57, i32 noundef 125, ptr noundef null)
  store i32 0, ptr %3, align 4
  store i32 1, ptr %9, align 4
  br label %157

80:                                               ; preds = %76
  br label %81

81:                                               ; preds = %80, %67
  br label %82

82:                                               ; preds = %81, %58
  br label %103

83:                                               ; preds = %47
  %84 = load ptr, ptr %7, align 8, !tbaa !30
  %85 = call i32 @OSSL_PARAM_get_int(ptr noundef %84, ptr noundef %8)
  %86 = icmp ne i32 %85, 0
  br i1 %86, label %87, label %101

87:                                               ; preds = %83
  %88 = load i32, ptr %8, align 4, !tbaa !35
  %89 = icmp ne i32 %88, 0
  br i1 %89, label %90, label %97

90:                                               ; preds = %87
  %91 = load i32, ptr %8, align 4, !tbaa !35
  %92 = icmp ne i32 %91, 1
  br i1 %92, label %93, label %97

93:                                               ; preds = %90
  %94 = load i32, ptr %8, align 4, !tbaa !35
  %95 = icmp ne i32 %94, 2
  br i1 %95, label %96, label %97

96:                                               ; preds = %93
  call void @ERR_new()
  call void @ERR_set_debug(ptr noundef @.str, i32 noundef 291, ptr noundef @__func__.hkdf_common_set_ctx_params)
  call void (i32, i32, ptr, ...) @ERR_set_error(i32 noundef 57, i32 noundef 125, ptr noundef null)
  store i32 0, ptr %3, align 4
  store i32 1, ptr %9, align 4
  br label %157

97:                                               ; preds = %93, %90, %87
  %98 = load i32, ptr %8, align 4, !tbaa !35
  %99 = load ptr, ptr %4, align 8, !tbaa !3
  %100 = getelementptr inbounds nuw %struct.KDF_HKDF, ptr %99, i32 0, i32 1
  store i32 %98, ptr %100, align 8, !tbaa !27
  br label %102

101:                                              ; preds = %83
  call void @ERR_new()
  call void @ERR_set_debug(ptr noundef @.str, i32 noundef 296, ptr noundef @__func__.hkdf_common_set_ctx_params)
  call void (i32, i32, ptr, ...) @ERR_set_error(i32 noundef 57, i32 noundef 125, ptr noundef null)
  store i32 0, ptr %3, align 4
  store i32 1, ptr %9, align 4
  br label %157

102:                                              ; preds = %97
  br label %103

103:                                              ; preds = %102, %82
  br label %104

104:                                              ; preds = %103, %43
  %105 = load ptr, ptr %5, align 8, !tbaa !30
  %106 = call ptr @OSSL_PARAM_locate_const(ptr noundef %105, ptr noundef @.str.5)
  store ptr %106, ptr %7, align 8, !tbaa !30
  %107 = icmp ne ptr %106, null
  br i1 %107, label %108, label %126

108:                                              ; preds = %104
  %109 = load ptr, ptr %4, align 8, !tbaa !3
  %110 = getelementptr inbounds nuw %struct.KDF_HKDF, ptr %109, i32 0, i32 5
  %111 = load ptr, ptr %110, align 8, !tbaa !17
  %112 = load ptr, ptr %4, align 8, !tbaa !3
  %113 = getelementptr inbounds nuw %struct.KDF_HKDF, ptr %112, i32 0, i32 6
  %114 = load i64, ptr %113, align 8, !tbaa !18
  call void @CRYPTO_clear_free(ptr noundef %111, i64 noundef %114, ptr noundef @.str, i32 noundef 302)
  %115 = load ptr, ptr %4, align 8, !tbaa !3
  %116 = getelementptr inbounds nuw %struct.KDF_HKDF, ptr %115, i32 0, i32 5
  store ptr null, ptr %116, align 8, !tbaa !17
  %117 = load ptr, ptr %7, align 8, !tbaa !30
  %118 = load ptr, ptr %4, align 8, !tbaa !3
  %119 = getelementptr inbounds nuw %struct.KDF_HKDF, ptr %118, i32 0, i32 5
  %120 = load ptr, ptr %4, align 8, !tbaa !3
  %121 = getelementptr inbounds nuw %struct.KDF_HKDF, ptr %120, i32 0, i32 6
  %122 = call i32 @OSSL_PARAM_get_octet_string(ptr noundef %117, ptr noundef %119, i64 noundef 0, ptr noundef %121)
  %123 = icmp ne i32 %122, 0
  br i1 %123, label %125, label %124

124:                                              ; preds = %108
  store i32 0, ptr %3, align 4
  store i32 1, ptr %9, align 4
  br label %157

125:                                              ; preds = %108
  br label %126

126:                                              ; preds = %125, %104
  %127 = load ptr, ptr %5, align 8, !tbaa !30
  %128 = call ptr @OSSL_PARAM_locate_const(ptr noundef %127, ptr noundef @.str.6)
  store ptr %128, ptr %7, align 8, !tbaa !30
  %129 = icmp ne ptr %128, null
  br i1 %129, label %130, label %156

130:                                              ; preds = %126
  %131 = load ptr, ptr %7, align 8, !tbaa !30
  %132 = getelementptr inbounds nuw %struct.ossl_param_st, ptr %131, i32 0, i32 3
  %133 = load i64, ptr %132, align 8, !tbaa !45
  %134 = icmp ne i64 %133, 0
  br i1 %134, label %135, label %155

135:                                              ; preds = %130
  %136 = load ptr, ptr %7, align 8, !tbaa !30
  %137 = getelementptr inbounds nuw %struct.ossl_param_st, ptr %136, i32 0, i32 2
  %138 = load ptr, ptr %137, align 8, !tbaa !44
  %139 = icmp ne ptr %138, null
  br i1 %139, label %140, label %155

140:                                              ; preds = %135
  %141 = load ptr, ptr %4, align 8, !tbaa !3
  %142 = getelementptr inbounds nuw %struct.KDF_HKDF, ptr %141, i32 0, i32 3
  %143 = load ptr, ptr %142, align 8, !tbaa !15
  call void @CRYPTO_free(ptr noundef %143, ptr noundef @.str, i32 noundef 311)
  %144 = load ptr, ptr %4, align 8, !tbaa !3
  %145 = getelementptr inbounds nuw %struct.KDF_HKDF, ptr %144, i32 0, i32 3
  store ptr null, ptr %145, align 8, !tbaa !15
  %146 = load ptr, ptr %7, align 8, !tbaa !30
  %147 = load ptr, ptr %4, align 8, !tbaa !3
  %148 = getelementptr inbounds nuw %struct.KDF_HKDF, ptr %147, i32 0, i32 3
  %149 = load ptr, ptr %4, align 8, !tbaa !3
  %150 = getelementptr inbounds nuw %struct.KDF_HKDF, ptr %149, i32 0, i32 4
  %151 = call i32 @OSSL_PARAM_get_octet_string(ptr noundef %146, ptr noundef %148, i64 noundef 0, ptr noundef %150)
  %152 = icmp ne i32 %151, 0
  br i1 %152, label %154, label %153

153:                                              ; preds = %140
  store i32 0, ptr %3, align 4
  store i32 1, ptr %9, align 4
  br label %157

154:                                              ; preds = %140
  br label %155

155:                                              ; preds = %154, %135, %130
  br label %156

156:                                              ; preds = %155, %126
  store i32 1, ptr %3, align 4
  store i32 1, ptr %9, align 4
  br label %157

157:                                              ; preds = %156, %153, %124, %101, %96, %79, %40, %18
  call void @llvm.lifetime.end.p0(i64 4, ptr %8) #6
  call void @llvm.lifetime.end.p0(i64 8, ptr %7) #6
  call void @llvm.lifetime.end.p0(i64 8, ptr %6) #6
  %158 = load i32, ptr %3, align 4
  ret i32 %158
}