; Function Attrs: nounwind uwtable
define internal fastcc range(i32 0, 2) i32 @hkdf_common_set_ctx_params(ptr noundef %0, ptr noundef %1) unnamed_addr #0 {
  %3 = alloca i32, align 4
  %4 = load ptr, ptr %0, align 8, !tbaa !3
  %5 = tail call ptr @ossl_prov_ctx_get0_libctx(ptr noundef %4) #7
  call void @llvm.lifetime.start.p0(i64 4, ptr nonnull %3) #7
  %6 = icmp eq ptr %1, null
  br i1 %6, label %.critedge, label %ossl_param_is_empty.exit

ossl_param_is_empty.exit:                         ; preds = %2
  %7 = load ptr, ptr %1, align 8, !tbaa !27
  %.not = icmp eq ptr %7, null
  br i1 %.not, label %.critedge, label %8

8:                                                ; preds = %ossl_param_is_empty.exit
  %9 = tail call ptr @OSSL_PARAM_locate_const(ptr noundef nonnull %1, ptr noundef nonnull @.str.4) #7
  %.not41 = icmp eq ptr %9, null
  br i1 %.not41, label %17, label %10

10:                                               ; preds = %8
  %11 = getelementptr inbounds nuw i8, ptr %0, i64 16
  %12 = tail call i32 @ossl_prov_digest_load_from_params(ptr noundef nonnull %11, ptr noundef nonnull %1, ptr noundef %5) #7
  %.not42 = icmp eq i32 %12, 0
  br i1 %.not42, label %.critedge, label %13

13:                                               ; preds = %10
  %14 = tail call ptr @ossl_prov_digest_md(ptr noundef nonnull %11) #7
  %15 = tail call i32 @EVP_MD_xof(ptr noundef %14) #7
  %.not43 = icmp eq i32 %15, 0
  br i1 %.not43, label %17, label %16

16:                                               ; preds = %13
  tail call void @ERR_new() #7
  tail call void @ERR_set_debug(ptr noundef nonnull @.str, i32 noundef 270, ptr noundef nonnull @__func__.hkdf_common_set_ctx_params) #7
  tail call void (i32, i32, ptr, ...) @ERR_set_error(i32 noundef 57, i32 noundef 183, ptr noundef null) #7
  br label %.critedge

17:                                               ; preds = %13, %8
  %18 = tail call ptr @OSSL_PARAM_locate_const(ptr noundef nonnull %1, ptr noundef nonnull @.str.2) #7
  %.not44 = icmp eq ptr %18, null
  br i1 %.not44, label %44, label %19

19:                                               ; preds = %17
  %20 = getelementptr inbounds nuw i8, ptr %18, i64 8
  %21 = load i32, ptr %20, align 8, !tbaa !32
  %22 = icmp eq i32 %21, 4
  br i1 %22, label %23, label %37

23:                                               ; preds = %19
  %24 = getelementptr inbounds nuw i8, ptr %18, i64 16
  %25 = load ptr, ptr %24, align 8, !tbaa !33
  %26 = tail call i32 @OPENSSL_strcasecmp(ptr noundef %25, ptr noundef nonnull @.str.8) #7
  %27 = icmp eq i32 %26, 0
  br i1 %27, label %.sink.split, label %28

28:                                               ; preds = %23
  %29 = load ptr, ptr %24, align 8, !tbaa !33
  %30 = tail call i32 @OPENSSL_strcasecmp(ptr noundef %29, ptr noundef nonnull @.str.9) #7
  %31 = icmp eq i32 %30, 0
  br i1 %31, label %.sink.split, label %32

32:                                               ; preds = %28
  %33 = load ptr, ptr %24, align 8, !tbaa !33
  %34 = tail call i32 @OPENSSL_strcasecmp(ptr noundef %33, ptr noundef nonnull @.str.10) #7
  %35 = icmp eq i32 %34, 0
  br i1 %35, label %.sink.split, label %36

36:                                               ; preds = %32
  tail call void @ERR_new() #7
  tail call void @ERR_set_debug(ptr noundef nonnull @.str, i32 noundef 284, ptr noundef nonnull @__func__.hkdf_common_set_ctx_params) #7
  tail call void (i32, i32, ptr, ...) @ERR_set_error(i32 noundef 57, i32 noundef 125, ptr noundef null) #7
  br label %.critedge

37:                                               ; preds = %19
  %38 = call i32 @OSSL_PARAM_get_int(ptr noundef nonnull %18, ptr noundef nonnull %3) #7
  %.not45 = icmp eq i32 %38, 0
  br i1 %.not45, label %42, label %39

39:                                               ; preds = %37
  %40 = load i32, ptr %3, align 4, !tbaa !34
  %or.cond3 = icmp ugt i32 %40, 2
  br i1 %or.cond3, label %41, label %.sink.split

41:                                               ; preds = %39
  call void @ERR_new() #7
  call void @ERR_set_debug(ptr noundef nonnull @.str, i32 noundef 291, ptr noundef nonnull @__func__.hkdf_common_set_ctx_params) #7
  call void (i32, i32, ptr, ...) @ERR_set_error(i32 noundef 57, i32 noundef 125, ptr noundef null) #7
  br label %.critedge

42:                                               ; preds = %37
  call void @ERR_new() #7
  call void @ERR_set_debug(ptr noundef nonnull @.str, i32 noundef 296, ptr noundef nonnull @__func__.hkdf_common_set_ctx_params) #7
  call void (i32, i32, ptr, ...) @ERR_set_error(i32 noundef 57, i32 noundef 125, ptr noundef null) #7
  br label %.critedge

.sink.split:                                      ; preds = %39, %32, %28, %23
  %.sink = phi i32 [ 0, %23 ], [ 1, %28 ], [ 2, %32 ], [ %40, %39 ]
  %43 = getelementptr inbounds nuw i8, ptr %0, i64 8
  store i32 %.sink, ptr %43, align 8, !tbaa !26
  br label %44

44:                                               ; preds = %.sink.split, %17
  %45 = call ptr @OSSL_PARAM_locate_const(ptr noundef nonnull %1, ptr noundef nonnull @.str.5) #7
  %.not46 = icmp eq ptr %45, null
  br i1 %.not46, label %52, label %46

46:                                               ; preds = %44
  %47 = getelementptr inbounds nuw i8, ptr %0, i64 56
  %48 = load ptr, ptr %47, align 8, !tbaa !16
  %49 = getelementptr inbounds nuw i8, ptr %0, i64 64
  %50 = load i64, ptr %49, align 8, !tbaa !17
  call void @CRYPTO_clear_free(ptr noundef %48, i64 noundef %50, ptr noundef nonnull @.str, i32 noundef 302) #7
  store ptr null, ptr %47, align 8, !tbaa !16
  %51 = call i32 @OSSL_PARAM_get_octet_string(ptr noundef nonnull %45, ptr noundef nonnull %47, i64 noundef 0, ptr noundef nonnull %49) #7
  %.not47 = icmp eq i32 %51, 0
  br i1 %.not47, label %.critedge, label %52

52:                                               ; preds = %46, %44
  %53 = call ptr @OSSL_PARAM_locate_const(ptr noundef nonnull %1, ptr noundef nonnull @.str.6) #7
  %.not48 = icmp eq ptr %53, null
  br i1 %.not48, label %65, label %54

54:                                               ; preds = %52
  %55 = getelementptr inbounds nuw i8, ptr %53, i64 24
  %56 = load i64, ptr %55, align 8, !tbaa !35
  %.not49 = icmp eq i64 %56, 0
  br i1 %.not49, label %65, label %57

57:                                               ; preds = %54
  %58 = getelementptr inbounds nuw i8, ptr %53, i64 16
  %59 = load ptr, ptr %58, align 8, !tbaa !33
  %.not50 = icmp eq ptr %59, null
  br i1 %.not50, label %65, label %60

60:                                               ; preds = %57
  %61 = getelementptr inbounds nuw i8, ptr %0, i64 40
  %62 = load ptr, ptr %61, align 8, !tbaa !14
  call void @CRYPTO_free(ptr noundef %62, ptr noundef nonnull @.str, i32 noundef 311) #7
  store ptr null, ptr %61, align 8, !tbaa !14
  %63 = getelementptr inbounds nuw i8, ptr %0, i64 48
  %64 = call i32 @OSSL_PARAM_get_octet_string(ptr noundef nonnull %53, ptr noundef nonnull %61, i64 noundef 0, ptr noundef nonnull %63) #7
  %.not51 = icmp eq i32 %64, 0
  br i1 %.not51, label %.critedge, label %65

65:                                               ; preds = %54, %57, %60, %52
  br label %.critedge

.critedge:                                        ; preds = %2, %16, %10, %60, %46, %ossl_param_is_empty.exit, %65, %42, %41, %36
  %.037 = phi i32 [ 1, %65 ], [ 0, %36 ], [ 0, %41 ], [ 0, %42 ], [ 1, %ossl_param_is_empty.exit ], [ 0, %46 ], [ 0, %60 ], [ 0, %10 ], [ 0, %16 ], [ 1, %2 ]
  call void @llvm.lifetime.end.p0(i64 4, ptr nonnull %3) #7
  ret i32 %.037
}